; Function Attrs: mustprogress nounwind uwtable
define hidden void @_ZNK13XBarrierSetC210emit_stubsER10CodeBuffer(ptr nocapture nonnull readnone align 8 %0, ptr noundef nonnull align 8 dereferenceable(448) %1) unnamed_addr #0 align 2 {
  %3 = alloca %class.MacroAssembler, align 8
  call void @_ZN17AbstractAssemblerC2EP10CodeBuffer(ptr noundef nonnull align 8 dereferenceable(24) %3, ptr noundef nonnull %1) #12
  store ptr getelementptr inbounds inrange(-16, 8) (i8, ptr @_ZTV9Assembler, i64 16), ptr %3, align 8
  call void @_ZN9Assembler15init_attributesEv(ptr noundef nonnull align 8 dereferenceable(40) %3) #12
  store ptr getelementptr inbounds inrange(-16, 40) (i8, ptr @_ZTV14MacroAssembler, i64 16), ptr %3, align 8
  %4 = call align 8 ptr @llvm.threadlocal.address.p0(ptr align 8 @_ZN6Thread12_thr_currentE)
  %5 = load ptr, ptr %4, align 8
  %6 = getelementptr inbounds i8, ptr %5, i64 1808
  %7 = load ptr, ptr %6, align 8
  %8 = getelementptr inbounds i8, ptr %7, i64 128
  %9 = load ptr, ptr %8, align 8
  %10 = getelementptr inbounds i8, ptr %9, i64 344
  %11 = load ptr, ptr %10, align 8
  %12 = load ptr, ptr %11, align 8
  %13 = load i32, ptr %12, align 4
  %14 = icmp sgt i32 %13, 0
  br i1 %14, label %.lr.ph, label %._crit_edge

.lr.ph:                                           ; preds = %2
  %15 = getelementptr inbounds i8, ptr %1, i64 120
  %16 = getelementptr inbounds i8, ptr %1, i64 112
  %17 = getelementptr inbounds i8, ptr %1, i64 96
  %18 = getelementptr inbounds i8, ptr %1, i64 176
  %19 = getelementptr inbounds i8, ptr %1, i64 280
  %20 = getelementptr inbounds i8, ptr %12, i64 8
  br label %21

21:                                               ; preds = %.lr.ph, %_ZN11CodeSection32maybe_expand_to_ensure_remainingEi.exit
  %indvars.iv = phi i64 [ 0, %.lr.ph ], [ %indvars.iv.next, %_ZN11CodeSection32maybe_expand_to_ensure_remainingEi.exit ]
  %22 = load ptr, ptr %15, align 8
  %23 = load ptr, ptr %16, align 8
  %24 = ptrtoint ptr %22 to i64
  %25 = ptrtoint ptr %23 to i64
  %26 = sub i64 %24, %25
  %27 = trunc i64 %26 to i32
  %28 = icmp slt i32 %27, 2048
  br i1 %28, label %29, label %_ZN11CodeSection32maybe_expand_to_ensure_remainingEi.exit

29:                                               ; preds = %21
  %30 = load ptr, ptr %18, align 8
  call void @_ZN10CodeBuffer6expandEP11CodeSectioni(ptr noundef nonnull align 8 dereferenceable(448) %30, ptr noundef nonnull %17, i32 noundef 2048) #12
  %31 = load ptr, ptr %19, align 8
  %32 = icmp eq ptr %31, null
  br i1 %32, label %33, label %_ZN11CodeSection32maybe_expand_to_ensure_remainingEi.exit

33:                                               ; preds = %29
  %34 = load ptr, ptr %4, align 8
  %35 = getelementptr inbounds i8, ptr %34, i64 1808
  %36 = load ptr, ptr %35, align 8
  call void @_ZN5ciEnv14record_failureEPKc(ptr noundef nonnull align 8 dereferenceable(1265) %36, ptr noundef nonnull @.str) #12
  br label %44

_ZN11CodeSection32maybe_expand_to_ensure_remainingEi.exit: ; preds = %21, %29
  %37 = call noundef ptr @_ZN11XBarrierSet9assemblerEv() #12
  %38 = load ptr, ptr %20, align 8
  %39 = getelementptr inbounds ptr, ptr %38, i64 %indvars.iv
  %40 = load ptr, ptr %39, align 8
  call void @_ZNK20XBarrierSetAssembler29generate_c2_load_barrier_stubEP14MacroAssemblerP18XLoadBarrierStubC2(ptr noundef nonnull align 8 dereferenceable(8) %37, ptr noundef nonnull %3, ptr noundef %40) #12
  %indvars.iv.next = add nuw nsw i64 %indvars.iv, 1
  %41 = load i32, ptr %12, align 4
  %42 = sext i32 %41 to i64
  %43 = icmp slt i64 %indvars.iv.next, %42
  br i1 %43, label %21, label %._crit_edge, !llvm.loop !17

._crit_edge:                                      ; preds = %_ZN11CodeSection32maybe_expand_to_ensure_remainingEi.exit, %2
  call void @_ZN17AbstractAssembler5flushEv(ptr noundef nonnull align 8 dereferenceable(24) %3) #12
  br label %44

44:                                               ; preds = %._crit_edge, %33
  ret void
}